Certificate:
    Data:
        Version: 3 (0x2)
        Serial Number: 7 (0x7)
    Signature Algorithm: sha256WithRSAEncryption
        Issuer: C=CN, ST=Shanghai, O=enihsyou Ltd, OU=enihsyou Ltd Certificate Authority, CN=enihsyou Ltd Intermediate CA/emailAddress=s1131234@gmail.com
        Validity
            Not Before: Sep  6 18:01:00 2019 GMT
            Not After : Dec  5 18:01:00 2019 GMT
        Subject: C=CN, ST=Shanghai, L=Shanghai, O=enihsyou Ltd, OU=enihsyou Ltd Server Group, CN=aria2/emailAddress=s1131234@gmail.com
        Subject Public Key Info:
            Public Key Algorithm: rsaEncryption
                Public-Key: (2048 bit)
                Modulus:
                    00:ca:c0:4a:53:4d:ff:be:bf:53:72:65:8c:1a:84:
                    e4:d3:ee:8f:34:3b:a1:a3:a3:44:f3:88:cc:1d:b3:
                    e6:07:0c:60:45:4f:71:f2:35:2d:8a:84:54:09:8e:
                    0d:88:71:ec:9e:7e:bc:26:ee:94:da:eb:01:b6:62:
                    1e:a9:86:c8:4f:6e:80:66:3d:fa:49:ab:bc:fd:53:
                    f1:2c:3e:76:cd:a2:b8:b4:cb:25:0f:ef:39:19:32:
                    c9:0d:ac:70:73:bf:70:95:96:df:55:e4:ac:5f:5c:
                    23:97:1e:3a:fe:b6:58:f4:58:0c:fd:99:6b:05:75:
                    51:82:80:f1:3a:f4:9a:bf:a3:3f:88:01:1e:ec:9e:
                    7b:f8:63:98:64:4d:b0:e0:88:07:7e:5f:80:7d:e0:
                    f5:a2:39:0b:70:bf:15:c7:d6:a1:95:20:ca:66:bf:
                    4e:3b:36:24:db:d7:3f:d2:d5:88:5e:bb:22:f8:c2:
                    50:d7:a7:a2:88:11:c1:43:61:c3:71:19:21:6c:a8:
                    9b:30:b4:7d:04:ce:13:a5:7a:01:ea:08:c6:1e:28:
                    32:00:68:d7:b5:45:dd:51:2b:4c:d1:ca:1d:30:b3:
                    12:08:83:58:25:33:cd:03:77:ac:45:f7:4f:88:62:
                    9e:aa:4e:38:96:59:37:e1:e7:6e:08:ef:d9:af:d8:
                    42:17
                Exponent: 65537 (0x10001)
        X509v3 extensions:
            X509v3 Basic Constraints: 
                CA:FALSE
            Netscape Cert Type: 
                SSL Server
            Netscape Comment: 
                OpenSSL Generated Server Certificate
            X509v3 Subject Key Identifier: 
                6A:3D:3E:92:F9:66:C2:40:56:EF:A2:AC:2F:D1:C3:05:4E:E8:A3:DE
            X509v3 Authority Key Identifier: 
                keyid:AD:A4:8F:6F:2C:F1:56:46:D7:97:52:03:6E:5D:DA:D3:65:09:E4:B8
                DirName:/C=CN/ST=Shanghai/L=Shanghai/O=enihsyou Ltd/OU=enihsyou Ltd Certificate Authority/CN=enihsyou Ltd Root CA/emailAddress=s1131234@gmail.com
                serial:00

            X509v3 Key Usage: critical
                Digital Signature, Non Repudiation, Key Encipherment, Data Encipherment
            X509v3 Extended Key Usage: 
                TLS Web Server Authentication
            X509v3 Subject Alternative Name: 
                IP Address:127.0.0.1, IP Address:192.168.9.4, DNS:localhost, DNS:enihsyou-MBP
    Signature Algorithm: sha256WithRSAEncryption
         be:6c:13:58:f0:d1:e8:aa:73:f8:d2:63:ad:4a:8f:5c:8b:80:
         4f:64:16:74:e3:26:cd:a9:79:aa:79:60:2f:26:8f:fd:17:cd:
         25:38:be:0a:3f:1a:34:8a:ac:a5:5d:79:f0:10:ae:88:94:75:
         a5:cb:7c:e5:7e:ae:3a:2b:44:29:e7:c6:9a:22:e0:86:34:be:
         9d:c8:b3:2e:a2:c9:0c:c7:f9:e3:00:7f:f5:8a:9f:fd:a2:d4:
         60:f1:48:69:27:0c:8d:5b:55:cc:36:4c:6c:29:3f:77:37:33:
         44:08:00:ed:18:84:18:04:05:bd:e9:77:e1:a9:bc:35:8f:99:
         7e:97:a6:66:56:fd:c3:69:da:29:13:e4:9a:f5:67:a3:98:d9:
         b1:55:f4:db:f2:88:4b:18:ce:aa:20:41:d4:4e:24:1c:23:0c:
         0f:8f:8d:26:ce:45:61:bd:db:65:63:0b:26:f7:0a:15:e8:e4:
         62:d7:5a:db:4c:75:8c:fa:31:e4:42:37:72:e7:57:21:3d:fb:
         1b:e6:98:43:72:64:eb:dc:69:f1:07:60:c3:f8:e8:5e:ed:69:
         e7:8f:e8:64:fa:83:e3:89:ae:99:f1:60:03:82:8c:79:be:c8:
         1f:00:42:36:c2:52:f0:44:5c:31:aa:81:a8:b8:94:0d:b1:99:
         f8:ea:68:1b:2c:fd:3e:c7:5f:68:cb:d5:ac:88:6d:0d:45:dd:
         bb:df:7a:a9:6d:43:35:9b:cf:23:04:e6:ec:b1:77:66:60:06:
         2e:dc:ff:33:81:f3:04:f9:e7:37:83:95:ca:63:b4:54:b5:73:
         e3:bc:cb:93:81:ec:2c:28:a1:98:21:e5:05:7e:07:3a:82:2d:
         61:ff:4e:99:f9:9f:00:1a:55:00:22:a8:24:ac:b4:ca:8d:36:
         ec:23:60:76:32:e6:7a:6b:85:4a:1e:dc:1f:8e:80:f4:4a:8f:
         c6:7d:e7:cb:32:79:62:48:29:d0:6e:dd:36:3f:8b:12:29:ca:
         5d:89:66:4d:15:65:34:f0:36:e6:95:d5:f8:44:80:47:86:95:
         6f:98:99:86:21:0e:8c:a9:cc:46:5f:fa:2b:9f:b0:d7:1a:98:
         f0:9a:72:42:6d:28:0d:9f:f7:c0:33:41:1e:29:3a:d3:ce:7e:
         3a:d9:ca:ab:e0:21:0c:73:4e:a6:ba:3f:4e:fb:05:5e:92:84:
         26:7f:13:68:20:44:d1:ca:60:03:80:b6:aa:cb:99:b5:5e:fd:
         93:b2:00:8b:0a:83:92:7c:40:e9:38:9c:e7:a2:57:6d:23:a1:
         c8:50:41:83:88:16:10:3c:0c:4f:9c:c5:f2:3c:02:19:50:f0:
         ae:16:d7:b4:ca:71:53:96
-----BEGIN CERTIFICATE-----
MIIGgjCCBGqgAwIBAgIBBzANBgkqhkiG9w0BAQsFADCBrjELMAkGA1UEBhMCQ04x
ETAPBgNVBAgMCFNoYW5naGFpMRUwEwYDVQQKDAxlbmloc3lvdSBMdGQxKzApBgNV
BAsMImVuaWhzeW91IEx0ZCBDZXJ0aWZpY2F0ZSBBdXRob3JpdHkxJTAjBgNVBAMM
HGVuaWhzeW91IEx0ZCBJbnRlcm1lZGlhdGUgQ0ExITAfBgkqhkiG9w0BCQEWEnMx
MTMxMjM0QGdtYWlsLmNvbTAeFw0xOTA5MDYxODAxMDBaFw0xOTEyMDUxODAxMDBa
MIGhMQswCQYDVQQGEwJDTjERMA8GA1UECAwIU2hhbmdoYWkxETAPBgNVBAcMCFNo
YW5naGFpMRUwEwYDVQQKDAxlbmloc3lvdSBMdGQxIjAgBgNVBAsMGWVuaWhzeW91
IEx0ZCBTZXJ2ZXIgR3JvdXAxDjAMBgNVBAMMBWFyaWEyMSEwHwYJKoZIhvcNAQkB
FhJzMTEzMTIzNEBnbWFpbC5jb20wggEiMA0GCSqGSIb3DQEBAQUAA4IBDwAwggEK
AoIBAQDKwEpTTf++v1NyZYwahOTT7o80O6Gjo0TziMwds+YHDGBFT3HyNS2KhFQJ
jg2Iceyefrwm7pTa6wG2Yh6phshPboBmPfpJq7z9U/EsPnbNori0yyUP7zkZMskN
rHBzv3CVlt9V5KxfXCOXHjr+tlj0WAz9mWsFdVGCgPE69Jq/oz+IAR7snnv4Y5hk
TbDgiAd+X4B94PWiOQtwvxXH1qGVIMpmv047NiTb1z/S1YheuyL4wlDXp6KIEcFD
YcNxGSFsqJswtH0EzhOlegHqCMYeKDIAaNe1Rd1RK0zRyh0wsxIIg1glM80Dd6xF
90+IYp6qTjiWWTfh524I79mv2EIXAgMBAAGjggG0MIIBsDAJBgNVHRMEAjAAMBEG
CWCGSAGG+EIBAQQEAwIGQDAzBglghkgBhvhCAQ0EJhYkT3BlblNTTCBHZW5lcmF0
ZWQgU2VydmVyIENlcnRpZmljYXRlMB0GA1UdDgQWBBRqPT6S+WbCQFbvoqwv0cMF
Tuij3jCB5gYDVR0jBIHeMIHbgBStpI9vLPFWRteXUgNuXdrTZQnkuKGBv6SBvDCB
uTELMAkGA1UEBhMCQ04xETAPBgNVBAgMCFNoYW5naGFpMREwDwYDVQQHDAhTaGFu
Z2hhaTEVMBMGA1UECgwMZW5paHN5b3UgTHRkMSswKQYDVQQLDCJlbmloc3lvdSBM
dGQgQ2VydGlmaWNhdGUgQXV0aG9yaXR5MR0wGwYDVQQDDBRlbmloc3lvdSBMdGQg
Um9vdCBDQTEhMB8GCSqGSIb3DQEJARYSczExMzEyMzRAZ21haWwuY29tggEAMA4G
A1UdDwEB/wQEAwIE8DATBgNVHSUEDDAKBggrBgEFBQcDATAuBgNVHREEJzAlhwR/
AAABhwTAqAkEgglsb2NhbGhvc3SCDGVuaWhzeW91LU1CUDANBgkqhkiG9w0BAQsF
AAOCAgEAvmwTWPDR6Kpz+NJjrUqPXIuAT2QWdOMmzal5qnlgLyaP/RfNJTi+Cj8a
NIqspV158BCuiJR1pct85X6uOitEKefGmiLghjS+ncizLqLJDMf54wB/9Yqf/aLU
YPFIaScMjVtVzDZMbCk/dzczRAgA7RiEGAQFvel34am8NY+ZfpemZlb9w2naKRPk
mvVno5jZsVX02/KISxjOqiBB1E4kHCMMD4+NJs5FYb3bZWMLJvcKFejkYtda20x1
jPox5EI3cudXIT37G+aYQ3Jk69xp8Qdgw/joXu1p54/oZPqD44mumfFgA4KMeb7I
HwBCNsJS8ERcMaqBqLiUDbGZ+OpoGyz9PsdfaMvVrIhtDUXdu996qW1DNZvPIwTm
7LF3ZmAGLtz/M4HzBPnnN4OVymO0VLVz47zLk4HsLCihmCHlBX4HOoItYf9Omfmf
ABpVACKoJKy0yo027CNgdjLmemuFSh7cH46A9EqPxn3nyzJ5Ykgp0G7dNj+LEinK
XYlmTRVlNPA25pXV+ESAR4aVb5iZhiEOjKnMRl/6K5+w1xqY8JpyQm0oDZ/3wDNB
Hik6085+OtnKq+AhDHNOpro/TvsFXpKEJn8TaCBE0cpgA4C2qsuZtV79k7IAiwqD
knxA6Tic56JXbSOhyFBBg4gWEDwMT5zF8jwCGVDwrhbXtMpxU5Y=
-----END CERTIFICATE-----
Certificate:
    Data:
        Version: 3 (0x2)
        Serial Number: 0 (0x0)
    Signature Algorithm: sha256WithRSAEncryption
        Issuer: C=CN, ST=Shanghai, L=Shanghai, O=enihsyou Ltd, OU=enihsyou Ltd Certificate Authority, CN=enihsyou Ltd Root CA/emailAddress=s1131234@gmail.com
        Validity
            Not Before: Jun  7 18:45:16 2019 GMT
            Not After : Jun  6 18:45:16 2020 GMT
        Subject: C=CN, ST=Shanghai, O=enihsyou Ltd, OU=enihsyou Ltd Certificate Authority, CN=enihsyou Ltd Intermediate CA/emailAddress=s1131234@gmail.com
        Subject Public Key Info:
            Public Key Algorithm: rsaEncryption
                Public-Key: (4096 bit)
                Modulus:
                    00:eb:bd:68:0a:19:bd:3e:08:04:58:ca:2d:fb:f0:
                    6b:a7:73:b0:64:1b:c3:e3:df:cc:79:ec:bf:e5:60:
                    29:36:ca:0a:74:8c:a3:39:45:83:52:27:34:43:d1:
                    de:de:28:a7:fe:90:a0:3d:15:28:f1:9b:23:16:c3:
                    38:45:b7:4e:95:14:88:12:14:16:57:fd:6d:7d:be:
                    37:96:60:60:87:1e:d4:eb:26:4c:65:c4:7c:2c:75:
                    e2:91:ee:4d:45:ac:bd:e6:1b:34:ad:e9:36:45:80:
                    ef:42:ab:bf:03:7c:65:ed:37:03:45:eb:1d:3f:ee:
                    51:d7:14:fc:8f:52:11:68:b5:f5:f6:fd:db:78:53:
                    17:a8:2f:a4:d8:d1:b9:8b:1e:9d:d0:18:2c:3b:58:
                    20:b8:1a:a0:7e:98:ad:2b:bd:a4:f2:c0:14:fe:15:
                    91:74:bd:e9:f0:68:3a:7c:2a:fa:2c:d2:1d:5c:31:
                    8a:45:52:8e:45:7a:4a:47:0b:ba:3a:ad:2a:ef:1c:
                    1a:63:b6:32:b6:b7:6e:96:32:4b:97:bc:01:36:3b:
                    d0:7a:56:d0:01:6d:86:3a:d9:07:a5:1f:ca:9c:07:
                    4e:53:83:6a:a5:02:7d:18:b0:1e:26:d2:13:56:26:
                    63:11:9a:34:59:fe:54:58:9e:40:ac:80:ae:8d:16:
                    39:90:1a:d4:39:43:9a:96:49:4b:12:4c:c4:9d:b0:
                    7a:d0:8e:1e:3a:e2:99:62:a0:d3:e0:18:26:bf:1d:
                    c1:3f:4a:50:8e:90:83:80:09:48:82:2a:2b:09:6d:
                    f0:24:f5:42:32:dc:86:53:60:ed:95:28:ea:dd:98:
                    e3:92:93:91:a7:6a:d8:43:e1:73:39:dc:8b:79:2b:
                    d7:0a:75:46:82:d2:1d:c3:dc:c8:49:e1:f2:60:bb:
                    52:8a:a2:21:09:90:ee:11:6a:54:0b:5d:79:47:7a:
                    18:0d:8f:9d:05:b3:ad:91:64:58:62:f8:6b:b7:80:
                    8e:b0:59:43:d5:37:e3:a4:96:fd:2c:6b:f3:88:23:
                    df:e5:1d:a2:d7:4d:0c:3d:1d:2b:bd:92:c8:ef:c3:
                    e2:e2:05:b6:74:f7:f4:68:58:f5:2a:35:bf:1d:95:
                    ab:97:e2:d9:73:1c:25:e3:84:1e:db:8d:0c:4f:6b:
                    f7:9c:ce:bd:49:9f:1f:ea:1b:7a:f3:e4:6c:4a:0c:
                    bb:c3:b0:69:f3:65:0f:46:70:37:24:17:62:70:de:
                    e4:7b:f2:f6:c8:bc:cf:bd:7e:7d:cd:1f:c2:e6:8e:
                    a6:25:0b:be:6c:4b:a7:88:fc:b9:2f:65:7f:46:f6:
                    9d:c1:5f:4a:29:1e:72:b7:b8:65:34:1a:84:5f:e0:
                    04:a0:6f
                Exponent: 65537 (0x10001)
        X509v3 extensions:
            X509v3 Subject Key Identifier: 
                AD:A4:8F:6F:2C:F1:56:46:D7:97:52:03:6E:5D:DA:D3:65:09:E4:B8
            X509v3 Authority Key Identifier: 
                keyid:C3:26:89:C0:B3:0B:28:8F:AA:49:D1:53:05:15:03:99:96:28:E8:0D

            X509v3 Basic Constraints: critical
                CA:TRUE, pathlen:0
            X509v3 Key Usage: critical
                Digital Signature, Certificate Sign, CRL Sign
    Signature Algorithm: sha256WithRSAEncryption
         82:41:7d:77:b9:58:02:46:36:11:52:e1:91:12:58:9c:83:8f:
         06:27:ed:de:fa:55:dc:6a:36:b2:04:d4:af:26:df:39:d0:24:
         85:21:b6:12:a5:ff:48:f0:13:e2:52:5e:83:5c:de:4b:ef:b6:
         3e:11:79:26:72:77:01:33:01:7f:f1:33:9a:79:30:94:5a:b7:
         b0:8c:9d:28:9a:e1:f6:75:f9:78:91:fe:ff:59:1e:55:75:3b:
         bd:9a:1c:3b:6d:12:0d:d1:d0:d3:86:cb:e2:32:01:3e:e1:e8:
         54:7d:35:a1:a6:f2:62:73:8c:08:79:55:d4:a5:a0:0c:7c:d0:
         bc:7c:b1:44:9f:56:d2:49:df:0d:a6:53:99:f5:55:20:32:81:
         9f:70:c3:6e:cb:94:b8:71:b6:b2:1a:8f:47:17:28:3d:53:f4:
         6f:e5:95:78:7e:4c:df:69:6b:df:07:71:eb:82:62:cf:d0:4a:
         75:cc:6c:e2:4d:d1:15:51:52:16:01:16:ac:c7:ae:dc:5e:1f:
         71:19:e9:e2:07:ad:61:17:84:b1:4a:fc:59:04:d5:11:af:50:
         c6:aa:61:09:08:ab:70:f6:ef:c3:00:28:36:0c:4e:94:b0:ec:
         04:2b:46:c6:b4:3b:22:a5:2e:79:f0:aa:cf:75:2e:ec:3c:11:
         8a:5c:c8:8b:90:27:86:18:cf:23:02:eb:d2:db:3a:24:c5:e4:
         6b:e3:c6:34:46:99:58:48:e3:6c:cc:b9:01:4f:5d:11:d5:c1:
         23:1a:b1:ea:f2:2e:e9:6d:9d:42:17:80:04:0d:fb:62:66:07:
         61:59:75:e6:78:a8:3d:1e:76:46:ec:ec:d2:8a:84:13:fe:b2:
         06:a3:b2:6d:52:87:ee:73:42:29:16:c1:04:07:e2:8c:09:80:
         62:df:1a:b3:46:02:52:16:7d:24:55:3f:bd:a7:d8:ff:1c:de:
         53:19:73:e1:f1:ca:58:60:56:dd:7f:a9:c8:2e:da:18:9b:a5:
         60:a8:ca:21:ab:1d:e6:e8:f6:82:88:b4:a0:9b:f8:e5:67:16:
         1f:d9:7c:d9:e6:c2:56:0e:e0:a4:22:54:1c:9d:cd:e7:15:85:
         33:34:97:8f:7f:00:6c:07:56:8d:f3:e0:c7:e0:c3:d3:12:04:
         f0:be:f3:22:a7:54:97:48:96:e7:89:6f:a2:45:8e:28:0a:97:
         3b:3d:b5:ab:95:52:89:b1:06:a5:93:3b:92:2e:2b:4c:0a:9e:
         8b:51:b7:7e:d3:03:42:32:d4:b3:8c:c6:1b:51:cd:05:f3:c3:
         f8:05:99:36:cf:7b:c4:42:14:2a:e5:d6:1a:a2:f2:fe:ea:03:
         79:c8:61:f3:c0:30:b8:30
-----BEGIN CERTIFICATE-----
MIIGSjCCBDKgAwIBAgIBADANBgkqhkiG9w0BAQsFADCBuTELMAkGA1UEBhMCQ04x
ETAPBgNVBAgMCFNoYW5naGFpMREwDwYDVQQHDAhTaGFuZ2hhaTEVMBMGA1UECgwM
ZW5paHN5b3UgTHRkMSswKQYDVQQLDCJlbmloc3lvdSBMdGQgQ2VydGlmaWNhdGUg
QXV0aG9yaXR5MR0wGwYDVQQDDBRlbmloc3lvdSBMdGQgUm9vdCBDQTEhMB8GCSqG
SIb3DQEJARYSczExMzEyMzRAZ21haWwuY29tMB4XDTE5MDYwNzE4NDUxNloXDTIw
MDYwNjE4NDUxNlowga4xCzAJBgNVBAYTAkNOMREwDwYDVQQIDAhTaGFuZ2hhaTEV
MBMGA1UECgwMZW5paHN5b3UgTHRkMSswKQYDVQQLDCJlbmloc3lvdSBMdGQgQ2Vy
dGlmaWNhdGUgQXV0aG9yaXR5MSUwIwYDVQQDDBxlbmloc3lvdSBMdGQgSW50ZXJt
ZWRpYXRlIENBMSEwHwYJKoZIhvcNAQkBFhJzMTEzMTIzNEBnbWFpbC5jb20wggIi
MA0GCSqGSIb3DQEBAQUAA4ICDwAwggIKAoICAQDrvWgKGb0+CARYyi378Gunc7Bk
G8Pj38x57L/lYCk2ygp0jKM5RYNSJzRD0d7eKKf+kKA9FSjxmyMWwzhFt06VFIgS
FBZX/W19vjeWYGCHHtTrJkxlxHwsdeKR7k1FrL3mGzSt6TZFgO9Cq78DfGXtNwNF
6x0/7lHXFPyPUhFotfX2/dt4UxeoL6TY0bmLHp3QGCw7WCC4GqB+mK0rvaTywBT+
FZF0venwaDp8Kvos0h1cMYpFUo5FekpHC7o6rSrvHBpjtjK2t26WMkuXvAE2O9B6
VtABbYY62QelH8qcB05Tg2qlAn0YsB4m0hNWJmMRmjRZ/lRYnkCsgK6NFjmQGtQ5
Q5qWSUsSTMSdsHrQjh464plioNPgGCa/HcE/SlCOkIOACUiCKisJbfAk9UIy3IZT
YO2VKOrdmOOSk5GnathD4XM53It5K9cKdUaC0h3D3MhJ4fJgu1KKoiEJkO4RalQL
XXlHehgNj50Fs62RZFhi+Gu3gI6wWUPVN+Oklv0sa/OII9/lHaLXTQw9HSu9ksjv
w+LiBbZ09/RoWPUqNb8dlauX4tlzHCXjhB7bjQxPa/eczr1Jnx/qG3rz5GxKDLvD
sGnzZQ9GcDckF2Jw3uR78vbIvM+9fn3NH8LmjqYlC75sS6eI/LkvZX9G9p3BX0op
HnK3uGU0GoRf4ASgbwIDAQABo2YwZDAdBgNVHQ4EFgQUraSPbyzxVkbXl1IDbl3a
02UJ5LgwHwYDVR0jBBgwFoAUwyaJwLMLKI+qSdFTBRUDmZYo6A0wEgYDVR0TAQH/
BAgwBgEB/wIBADAOBgNVHQ8BAf8EBAMCAYYwDQYJKoZIhvcNAQELBQADggIBAIJB
fXe5WAJGNhFS4ZESWJyDjwYn7d76VdxqNrIE1K8m3znQJIUhthKl/0jwE+JSXoNc
3kvvtj4ReSZydwEzAX/xM5p5MJRat7CMnSia4fZ1+XiR/v9ZHlV1O72aHDttEg3R
0NOGy+IyAT7h6FR9NaGm8mJzjAh5VdSloAx80Lx8sUSfVtJJ3w2mU5n1VSAygZ9w
w27LlLhxtrIaj0cXKD1T9G/llXh+TN9pa98HceuCYs/QSnXMbOJN0RVRUhYBFqzH
rtxeH3EZ6eIHrWEXhLFK/FkE1RGvUMaqYQkIq3D278MAKDYMTpSw7AQrRsa0OyKl
Lnnwqs91Luw8EYpcyIuQJ4YYzyMC69LbOiTF5GvjxjRGmVhI42zMuQFPXRHVwSMa
seryLultnUIXgAQN+2JmB2FZdeZ4qD0edkbs7NKKhBP+sgajsm1Sh+5zQikWwQQH
4owJgGLfGrNGAlIWfSRVP72n2P8c3lMZc+HxylhgVt1/qcgu2hibpWCoyiGrHebo
9oKItKCb+OVnFh/ZfNnmwlYO4KQiVBydzecVhTM0l49/AGwHVo3z4Mfgw9MSBPC+
8yKnVJdIlueJb6JFjigKlzs9tauVUomxBqWTO5IuK0wKnotRt37TA0Iy1LOMxhtR
zQXzw/gFmTbPe8RCFCrl1hqi8v7qA3nIYfPAMLgw
-----END CERTIFICATE-----
-----BEGIN CERTIFICATE-----
MIIGWjCCBEKgAwIBAgIJANRkKhf1YCWDMA0GCSqGSIb3DQEBCwUAMIG5MQswCQYD
VQQGEwJDTjERMA8GA1UECAwIU2hhbmdoYWkxETAPBgNVBAcMCFNoYW5naGFpMRUw
EwYDVQQKDAxlbmloc3lvdSBMdGQxKzApBgNVBAsMImVuaWhzeW91IEx0ZCBDZXJ0
aWZpY2F0ZSBBdXRob3JpdHkxHTAbBgNVBAMMFGVuaWhzeW91IEx0ZCBSb290IENB
MSEwHwYJKoZIhvcNAQkBFhJzMTEzMTIzNEBnbWFpbC5jb20wHhcNMTgwNjA0MDcz
NTI0WhcNMjgwNjAxMDczNTI0WjCBuTELMAkGA1UEBhMCQ04xETAPBgNVBAgMCFNo
YW5naGFpMREwDwYDVQQHDAhTaGFuZ2hhaTEVMBMGA1UECgwMZW5paHN5b3UgTHRk
MSswKQYDVQQLDCJlbmloc3lvdSBMdGQgQ2VydGlmaWNhdGUgQXV0aG9yaXR5MR0w
GwYDVQQDDBRlbmloc3lvdSBMdGQgUm9vdCBDQTEhMB8GCSqGSIb3DQEJARYSczEx
MzEyMzRAZ21haWwuY29tMIICIjANBgkqhkiG9w0BAQEFAAOCAg8AMIICCgKCAgEA
vfyrQ5wTHvahVZX4ZO4eQ3EoqoebfRuVpuSm7AbJNiKYIVp8PzXlWjZ8liivvm86
sJhqZNxcoKhPtYTHEk++ujccW4BEf9DOeRqinrMAuq5T+7HavucQCaHBGVMmVsNF
5uZdQqIhn2NqMl79PRhmZQ5o8zsgvASvXgIDIcfRPVBg6Wy9tprIcWdKBB/URs7S
y1YtetH1MV6Bzuhaktq7MOFhFbk1tjC0Rr/JXTEqdeTLE4jCe/W4EB05J16Lp/S0
XIIrCi7iV4B4B2CnwGmb/C4FnOMQciHFY4dsvyj2nbMRmeZBVyjpysmM+T93kvbO
Oe8keUFF6xpxN5TqQJpvjI072mZMkMAEyhYXh35wt/D57soGn12GLO4Xk9x6fpTh
20ZYGkbK+FRasaOV1rTD7EUX4OHyQIrz2XimLBElcsD/1AEM+7LQ/8ATU6+p9pxc
6th40Wjh5vO7OuFvoUEPCAl/9BNoC2Ds/aghtKloq80oN/NK8Et61B5tRt7q6tXt
OHQaEwdrj7h+IFJPl1f2DIc3PsNYqaVP2fIbiG3pGGsLlHDKQtnpggeY5jcmLp1B
Q7T5mRv9oxuAZ4VMwGnwpTezrI1HDW7wTHiba0QRYt6iFJ+vLpl4M9b9f7ilT567
9eIEkfCg2IT75vezU8OigmWx6zKezKd7j1qHbJudSYcCAwEAAaNjMGEwHQYDVR0O
BBYEFMMmicCzCyiPqknRUwUVA5mWKOgNMB8GA1UdIwQYMBaAFMMmicCzCyiPqknR
UwUVA5mWKOgNMA8GA1UdEwEB/wQFMAMBAf8wDgYDVR0PAQH/BAQDAgGGMA0GCSqG
SIb3DQEBCwUAA4ICAQBZZPT6Ze8H7TdX+y6K+F9ZXdhiuf8BIO6Re2cqfInOkvG/
LLOt321NTahq2y7l2+pPgePPs+XitDCmGILqXpDvryG8uGpAYpBC/A93bjoFrIw/
nukyRA8vlsrPpgnevpMMonaliE2uScEF72d5O+/WtATPU6aA8kvvK0lXbLbRVvIo
YbCkixQ9uBt0KO285zhUh7MD01lwVlfT0y4tu2iPs/yhCf4P964q13e9XrINSBHG
AyODulD+yY/7IpRfrDCvp2Vj13fNm0q6Xa1WEgqrUDmzs3JSRozfFPZsgRO2qh1e
Ko4R1/o48or+zMy1cFLzpqROU0LNdThM78wE9D5B+7tTZH436cbgapGqz+Vat1Jf
asTlRUBUyaG4bHBMpi3PaiwZScktAX/LqWEz8rc3q2f3tcGQtwsqG9n4NxwXjLyx
W1bv1jCCKa7oq/wu05/jn9b9pJ0Ks7faCchW9whutcaGyg+bY8AsvmnJ8rhPJ7uJ
soNDr2f2NuDG5nt8vBoujOxn9tfGSnY8TVOYkyK73o1c0w9N3WcIrX9L7BevyyvL
ijmP+WKZvAdEasjPDqR7bsFJ2eSyivoM5K2n+s3/LZVjgeBdFTViAAAvDYa+rBNg
mdLcRWI2/1lNX2icRE+29k4IOZOepJitVZwa5N40GoQA8Dqe3PUopCiLKNO66Q==
-----END CERTIFICATE-----
